target datalayout = "e-m:e-p270:32:32-p271:32:32-p272:64:64-i64:64-i128:128-f80:128-n8:16:32:64-S128"
target triple = "x86_64-pc-linux-gnu"

%class.compiledVFrame = type <{ %class.javaVFrame, ptr, i32, [4 x i8] }>
%class.javaVFrame = type { %class.vframe }
%class.vframe = type { ptr, %class.frame, %class.RegisterMap, ptr, %class.stackChunkHandle }
%class.frame = type { %union.anon, ptr, ptr, ptr, i32, i8, %union.anon.0, %union.anon.1 }
%union.anon = type { ptr }
%union.anon.0 = type { ptr }
%union.anon.1 = type { ptr }
%class.RegisterMap = type <{ [609 x ptr], [10 x i64], i8, [7 x i8], ptr, %class.stackChunkHandle, i32, i8, i8, i8, i8 }>
%class.stackChunkHandle = type { %class.Handle }
%class.Handle = type { ptr }

@g_assert_poison = external global ptr, align 8
@.str = private unnamed_addr constant [40 x i8] c"src/hotspot/share/runtime/vframe_hp.cpp\00", align 1
@.str.5 = private unnamed_addr constant [36 x i8] c"guarantee(_scope != nullptr) failed\00", align 1
@.str.6 = private unnamed_addr constant [22 x i8] c"scope must be present\00", align 1

; Function Attrs: mustprogress nounwind uwtable
define linkonce_odr hidden void @_ZN10javaVFrameC2EPK5framePK11RegisterMapP10JavaThread(ptr noundef nonnull align 8 dereferenceable(5064) %0, ptr noundef %1, ptr noundef %2, ptr noundef %3) unnamed_addr #1 comdat align 2 {
  %5 = alloca ptr, align 8
  %6 = alloca ptr, align 8
  %7 = alloca ptr, align 8
  %8 = alloca ptr, align 8
  store ptr %0, ptr %5, align 8
  store ptr %1, ptr %6, align 8
  store ptr %2, ptr %7, align 8
  store ptr %3, ptr %8, align 8
  %9 = load ptr, ptr %5, align 8
  %10 = load ptr, ptr %6, align 8
  %11 = load ptr, ptr %7, align 8
  %12 = load ptr, ptr %8, align 8
  call void @_ZN6vframeC2EPK5framePK11RegisterMapP10JavaThread(ptr noundef nonnull align 8 dereferenceable(5064) %9, ptr noundef %10, ptr noundef %11, ptr noundef %12)
  store ptr getelementptr inbounds inrange(-16, 96) ({ [14 x ptr] }, ptr @_ZTV10javaVFrame, i32 0, i32 0, i32 2), ptr %9, align 8
  ret void
}

; Function Attrs: mustprogress nounwind uwtable
define hidden void @_ZN14compiledVFrameC2EPK5framePK11RegisterMapP10JavaThreadP9ScopeDesci(ptr noundef nonnull align 8 dereferenceable(5076) %0, ptr noundef %1, ptr noundef %2, ptr noundef %3, ptr noundef %4, i32 noundef %5) unnamed_addr #1 align 2 {
  %7 = alloca ptr, align 8
  %8 = alloca ptr, align 8
  %9 = alloca ptr, align 8
  %10 = alloca ptr, align 8
  %11 = alloca ptr, align 8
  %12 = alloca i32, align 4
  store ptr %0, ptr %7, align 8
  store ptr %1, ptr %8, align 8
  store ptr %2, ptr %9, align 8
  store ptr %3, ptr %10, align 8
  store ptr %4, ptr %11, align 8
  store i32 %5, ptr %12, align 4
  %13 = load ptr, ptr %7, align 8
  %14 = load ptr, ptr %8, align 8
  %15 = load ptr, ptr %9, align 8
  %16 = load ptr, ptr %10, align 8
  call void @_ZN10javaVFrameC2EPK5framePK11RegisterMapP10JavaThread(ptr noundef nonnull align 8 dereferenceable(5064) %13, ptr noundef %14, ptr noundef %15, ptr noundef %16)
  store ptr getelementptr inbounds inrange(-16, 96) ({ [14 x ptr] }, ptr @_ZTV14compiledVFrame, i32 0, i32 0, i32 2), ptr %13, align 8
  %17 = load ptr, ptr %11, align 8
  %18 = getelementptr inbounds %class.compiledVFrame, ptr %13, i32 0, i32 1
  store ptr %17, ptr %18, align 8
  %19 = load i32, ptr %12, align 4
  %20 = getelementptr inbounds %class.compiledVFrame, ptr %13, i32 0, i32 2
  store i32 %19, ptr %20, align 8
  br label %21

21:                                               ; preds = %6
  %22 = getelementptr inbounds %class.compiledVFrame, ptr %13, i32 0, i32 1
  %23 = load ptr, ptr %22, align 8
  %24 = icmp ne ptr %23, null
  br i1 %24, label %27, label %25

25:                                               ; preds = %21
  %26 = load ptr, ptr @g_assert_poison, align 8
  store i8 88, ptr %26, align 1
  call void (ptr, i32, ptr, ptr, ...) @_Z15report_vm_errorPKciS0_S0_z(ptr noundef @.str, i32 noundef 317, ptr noundef @.str.5, ptr noundef @.str.6) #7
  unreachable

27:                                               ; preds = %21
  br label %28

28:                                               ; preds = %27
  ret void
}