; Function Attrs: mustprogress nounwind uwtable
define hidden void @_ZN14compiledVFrameC2EPK5framePK11RegisterMapP10JavaThreadP9ScopeDesci(ptr noundef nonnull align 8 dereferenceable(5076) %0, ptr noundef %1, ptr noundef %2, ptr noundef %3, ptr noundef %4, i32 noundef %5) unnamed_addr #0 align 2 {
  tail call void @_ZN6vframeC2EPK5framePK11RegisterMapP10JavaThread(ptr noundef nonnull align 8 dereferenceable(5064) %0, ptr noundef %1, ptr noundef %2, ptr noundef %3) #11
  store ptr getelementptr inbounds inrange(-16, 96) (i8, ptr @_ZTV14compiledVFrame, i64 16), ptr %0, align 8
  %7 = getelementptr inbounds i8, ptr %0, i64 5064
  store ptr %4, ptr %7, align 8
  %8 = getelementptr inbounds i8, ptr %0, i64 5072
  store i32 %5, ptr %8, align 8
  %.not = icmp eq ptr %4, null
  br i1 %.not, label %9, label %11

9:                                                ; preds = %6
  %10 = load ptr, ptr @g_assert_poison, align 8
  store i8 88, ptr %10, align 1
  tail call void (ptr, i32, ptr, ptr, ...) @_Z15report_vm_errorPKciS0_S0_z(ptr noundef nonnull @.str, i32 noundef 317, ptr noundef nonnull @.str.5, ptr noundef nonnull @.str.6) #12
  unreachable

11:                                               ; preds = %6
  ret void
}